target datalayout = "e-m:e-p270:32:32-p271:32:32-p272:64:64-i64:64-i128:128-f80:128-n8:16:32:64-S128"
target triple = "x86_64-pc-linux-gnu"

@.str.29 = private unnamed_addr constant [13 x i8] c"print \22test \00", align 1
@.str.30 = private unnamed_addr constant [5 x i8] c"\\n\22\0A\00", align 1

; Function Attrs: mustprogress uwtable
define internal void @_ZL7puts_fpP8_IO_FILEPKc(ptr noundef %0, ptr noundef %1) #7 {
  %3 = alloca ptr, align 8
  %4 = alloca ptr, align 8
  store ptr %0, ptr %3, align 8, !tbaa !15
  store ptr %1, ptr %4, align 8, !tbaa !13
  %5 = load ptr, ptr %3, align 8, !tbaa !15
  %6 = icmp ne ptr %5, null
  br i1 %6, label %7, label %11

7:                                                ; preds = %2
  %8 = load ptr, ptr %4, align 8, !tbaa !13
  %9 = load ptr, ptr %3, align 8, !tbaa !15
  %10 = call i32 @fputs(ptr noundef %8, ptr noundef %9)
  br label %11

11:                                               ; preds = %7, %2
  ret void
}

; Function Attrs: mustprogress uwtable
define internal void @_ZL7messageP8_IO_FILEPKc(ptr noundef %0, ptr noundef %1) #7 {
  %3 = alloca ptr, align 8
  %4 = alloca ptr, align 8
  store ptr %0, ptr %3, align 8, !tbaa !15
  store ptr %1, ptr %4, align 8, !tbaa !13
  %5 = load ptr, ptr %3, align 8, !tbaa !15
  call void @_ZL7puts_fpP8_IO_FILEPKc(ptr noundef %5, ptr noundef @.str.29)
  %6 = load ptr, ptr %3, align 8, !tbaa !15
  %7 = load ptr, ptr %4, align 8, !tbaa !13
  call void @_ZL7puts_fpP8_IO_FILEPKc(ptr noundef %6, ptr noundef %7)
  %8 = load ptr, ptr %3, align 8, !tbaa !15
  call void @_ZL7puts_fpP8_IO_FILEPKc(ptr noundef %8, ptr noundef @.str.30)
  ret void
}