; Function Attrs: mustprogress nofree norecurse nounwind uwtable
define internal fastcc void @_ZL7messageP8_IO_FILEPKc(ptr noundef captures(address_is_null) %0, ptr noundef readonly captures(none) %1) unnamed_addr #7 {
  %.not.i = icmp eq ptr %0, null
  br i1 %.not.i, label %_ZL7puts_fpP8_IO_FILEPKc.exit7, label %3

3:                                                ; preds = %2
  %4 = tail call i64 @fwrite(ptr nonnull @.str.29, i64 12, i64 1, ptr nonnull %0)
  %5 = tail call i32 @fputs(ptr noundef readonly %1, ptr noundef nonnull %0)
  %6 = tail call i64 @fwrite(ptr nonnull @.str.30, i64 4, i64 1, ptr nonnull %0)
  br label %_ZL7puts_fpP8_IO_FILEPKc.exit7

_ZL7puts_fpP8_IO_FILEPKc.exit7:                   ; preds = %2, %3
  ret void
}